(dp0
VServer
p1
Vcmsweb.cern.ch
p2
sVPort
p3
V
p4
sVRequestName
p5
V240909_145000:gkaratha_crab_20240909_164930
p6
sVvoRole
p7
VNULL
p8
sVvoGroup
p9
g4
sVinstance
p10
Vprod
p11
sVOriginalConfig
p12
ccopy_reg
_reconstructor
p13
(cWMCore.Configuration
Configuration
p14
c__builtin__
object
p15
Ntp16
Rp17
(dp18
V_internal_sections
p19
(lp20
VGeneral
p21
aVJobType
p22
aVData
p23
aVSite
p24
aVUser
p25
aVDebug
p26
asg21
g13
(cWMCore.Configuration
ConfigSection
p27
g15
Ntp28
Rp29
(dp30
V_internal_documentation
p31
g4
sV_internal_name
p32
g21
sV_internal_settings
p33
c__builtin__
set
p34
((lp35
VworkArea
p36
aVtransferOutputs
p37
atp38
Rp39
sV_internal_docstrings
p40
(dp41
sV_internal_children
p42
g34
((lp43
tp44
Rp45
sV_internal_parent_ref
p46
NsV_internal_skipChecks
p47
I00
sg37
I01
sg36
Vcrab_projects/B0ToKstarJpsi
p48
sbsg22
g13
(g27
g15
Ntp49
Rp50
(dp51
g31
g4
sg32
g22
sg33
g34
((lp52
VallowUndistributedCMSSW
p53
aVpluginName
p54
aVpsetName
p55
atp56
Rp57
sg40
(dp58
sg42
g34
((lp59
tp60
Rp61
sg46
Nsg47
I00
sg54
VAnalysis
p62
sg55
Vtest_cfg.py
p63
sg53
I01
sbsg23
g13
(g27
g15
Ntp64
Rp65
(dp66
g31
g4
sg32
g23
sg33
g34
((lp67
Vsplitting
p68
aVpublication
p69
aVoutputDatasetTag
p70
aVinputDataset
p71
aVoutLFNDirBase
p72
aVunitsPerJob
p73
atp74
Rp75
sg40
(dp76
sg42
g34
((lp77
tp78
Rp79
sg46
Nsg47
I00
sg71
V/BdtoJpsiKstar_Jpsito2Mu_KstartoKPi_MuFilter_TuneCP5_13p6TeV_pythia8-evtgen/Run3Summer22EEMiniAODv3-124X_mcRun3_2022_realistic_postEE_v1-v2/MINIAODSIM
p80
sg68
VFileBased
p81
sg73
I1
sg69
I00
sg72
V/store/group/phys_bphys/cpv/B0ToKstarJpsi_9_9_24
p82
sg70
VB0ToKstarJpsi_9_9_24
p83
sbsg24
g13
(g27
g15
Ntp84
Rp85
(dp86
g31
g4
sg32
g24
sg33
g34
((lp87
VstorageSite
p88
atp89
Rp90
sg40
(dp91
sg42
g34
((lp92
tp93
Rp94
sg46
Nsg47
I00
sg88
VT2_CH_CERN
p95
sbsg25
g13
(g27
g15
Ntp96
Rp97
(dp98
g31
g4
sg32
g25
sg33
g34
((lp99
tp100
Rp101
sg40
(dp102
sg42
g34
((lp103
tp104
Rp105
sg46
Nsg47
I00
sbsg26
g13
(g27
g15
Ntp106
Rp107
(dp108
g31
g4
sg32
g26
sg33
g34
((lp109
tp110
Rp111
sg40
(dp112
sg42
g34
((lp113
tp114
Rp115
sg46
Nsg47
I00
sbsbs.